; Function Attrs: mustprogress uwtable
define void @_ZNK13sentencepiece31ImmutableNBestSentencePieceText6nbestsEi(ptr dead_on_unwind noalias writable sret(%"class.sentencepiece::ImmutableSentencePieceText") align 8 %0, ptr nocapture noundef nonnull readonly align 8 dereferenceable(24) %1, i32 noundef %2) local_unnamed_addr #3 align 2 personality ptr @__gxx_personality_v0 {
  %4 = getelementptr inbounds i8, ptr %1, i64 8
  %5 = load ptr, ptr %4, align 8
  %6 = getelementptr inbounds i8, ptr %5, i64 32
  %7 = load ptr, ptr %6, align 8
  %8 = getelementptr inbounds i8, ptr %7, i64 8
  %9 = sext i32 %2 to i64
  %10 = getelementptr inbounds [268435454 x ptr], ptr %8, i64 0, i64 %9
  %11 = load ptr, ptr %10, align 8
  tail call void @_ZN13sentencepiece26ImmutableSentencePieceTextC1ERKNS_17SentencePieceTextE(ptr noundef nonnull align 8 dereferenceable(32) %0, ptr noundef nonnull align 8 dereferenceable(88) %11)
  ret void
}